target datalayout = "e-m:e-p270:32:32-p271:32:32-p272:64:64-i64:64-i128:128-f80:128-n8:16:32:64-S128"
target triple = "x86_64-unknown-linux-gnu"

%"class.boost::detail::shared_count" = type { ptr }
%"class.boost::shared_ptr.36" = type { ptr, %"class.boost::detail::shared_count" }
%"class.boost::shared_ptr.37" = type { ptr, %"class.boost::detail::shared_count" }
%"class.std::vector.38" = type { %"struct.std::_Vector_base.39" }
%"struct.std::_Vector_base.39" = type { %"struct.std::_Vector_base<boost::shared_ptr<QuantLib::BoundaryCondition<QuantLib::FdmLinearOp>>, std::allocator<boost::shared_ptr<QuantLib::BoundaryCondition<QuantLib::FdmLinearOp>>>>::_Vector_impl" }
%"struct.std::_Vector_base<boost::shared_ptr<QuantLib::BoundaryCondition<QuantLib::FdmLinearOp>>, std::allocator<boost::shared_ptr<QuantLib::BoundaryCondition<QuantLib::FdmLinearOp>>>>::_Vector_impl" = type { %"struct.std::_Vector_base<boost::shared_ptr<QuantLib::BoundaryCondition<QuantLib::FdmLinearOp>>, std::allocator<boost::shared_ptr<QuantLib::BoundaryCondition<QuantLib::FdmLinearOp>>>>::_Vector_impl_data" }
%"struct.std::_Vector_base<boost::shared_ptr<QuantLib::BoundaryCondition<QuantLib::FdmLinearOp>>, std::allocator<boost::shared_ptr<QuantLib::BoundaryCondition<QuantLib::FdmLinearOp>>>>::_Vector_impl_data" = type { ptr, ptr, ptr }
%"class.QuantLib::NinePointLinearOp" = type { %"class.QuantLib::FdmLinearOp", i64, i64, %"class.std::unique_ptr", %"class.std::unique_ptr", %"class.std::unique_ptr", %"class.std::unique_ptr", %"class.std::unique_ptr", %"class.std::unique_ptr", %"class.std::unique_ptr", %"class.std::unique_ptr", %"class.std::unique_ptr.47", %"class.std::unique_ptr.47", %"class.std::unique_ptr.47", %"class.std::unique_ptr.47", %"class.std::unique_ptr.47", %"class.std::unique_ptr.47", %"class.std::unique_ptr.47", %"class.std::unique_ptr.47", %"class.std::unique_ptr.47", %"class.boost::shared_ptr.34" }
%"class.QuantLib::FdmLinearOp" = type { ptr }
%"class.std::unique_ptr" = type { %"struct.std::__uniq_ptr_data" }
%"struct.std::__uniq_ptr_data" = type { %"class.std::__uniq_ptr_impl" }
%"class.std::__uniq_ptr_impl" = type { %"class.std::tuple" }
%"class.std::tuple" = type { %"struct.std::_Tuple_impl" }
%"struct.std::_Tuple_impl" = type { %"struct.std::_Head_base.46" }
%"struct.std::_Head_base.46" = type { ptr }
%"class.std::unique_ptr.47" = type { %"struct.std::__uniq_ptr_data.48" }
%"struct.std::__uniq_ptr_data.48" = type { %"class.std::__uniq_ptr_impl.49" }
%"class.std::__uniq_ptr_impl.49" = type { %"class.std::tuple.50" }
%"class.std::tuple.50" = type { %"struct.std::_Tuple_impl.51" }
%"struct.std::_Tuple_impl.51" = type { %"struct.std::_Head_base.54" }
%"struct.std::_Head_base.54" = type { ptr }
%"class.boost::shared_ptr.34" = type { ptr, %"class.boost::detail::shared_count" }
%"class.QuantLib::Array" = type { %"class.std::unique_ptr.47", i64 }
%"class.QuantLib::FdmKlugeExtOUOp" = type { %"class.QuantLib::FdmLinearOpComposite", %"class.boost::shared_ptr.34", %"class.boost::shared_ptr.35", %"class.boost::shared_ptr.36", %"class.boost::shared_ptr.37", %"class.std::vector.38", %"class.boost::shared_ptr.43", %"class.boost::shared_ptr.44", %"class.QuantLib::NinePointLinearOp" }
%"class.QuantLib::FdmLinearOpComposite" = type { %"class.QuantLib::FdmLinearOp" }
%"class.boost::shared_ptr.35" = type { ptr, %"class.boost::detail::shared_count" }
%"class.boost::shared_ptr.43" = type { ptr, %"class.boost::detail::shared_count" }
%"class.boost::shared_ptr.44" = type { ptr, %"class.boost::detail::shared_count" }

@.str.16 = private unnamed_addr constant [8 x i8] c"px != 0\00", align 1
@.str.17 = private unnamed_addr constant [102 x i8] c"generated/home/dtcxzyw/WorkSpace/SDK/vcpkg/installed/x64-linux/include/boost/smart_ptr/shared_ptr.hpp\00", align 1
@__PRETTY_FUNCTION__._ZNK5boost10shared_ptrIN8QuantLib14FdmExtOUJumpOpEEptEv = private unnamed_addr constant [145 x i8] c"typename boost::detail::sp_member_access<T>::type boost::shared_ptr<QuantLib::FdmExtOUJumpOp>::operator->() const [T = QuantLib::FdmExtOUJumpOp]\00", align 1

; Function Attrs: mustprogress uwtable
define linkonce_odr noundef ptr @_ZNK5boost10shared_ptrIN8QuantLib14FdmExtOUJumpOpEEptEv(ptr noundef nonnull align 8 dereferenceable(16) %this) #2 comdat align 2 {
entry:
  %this.addr = alloca ptr, align 8
  store ptr %this, ptr %this.addr, align 8, !tbaa !3
  %this1 = load ptr, ptr %this.addr, align 8
  %px = getelementptr inbounds nuw %"class.boost::shared_ptr.43", ptr %this1, i32 0, i32 0
  %0 = load ptr, ptr %px, align 8, !tbaa !29
  %cmp = icmp ne ptr %0, null
  %lnot = xor i1 %cmp, true
  %lnot2 = xor i1 %lnot, true
  %conv = zext i1 %lnot2 to i64
  %expval = call i64 @llvm.expect.i64(i64 %conv, i64 1)
  %tobool = icmp ne i64 %expval, 0
  br i1 %tobool, label %cond.true, label %cond.false

cond.true:                                        ; preds = %entry
  br label %cond.end

cond.false:                                       ; preds = %entry
  call void @_ZN5boost16assertion_failedEPKcS1_S1_l(ptr noundef @.str.16, ptr noundef @__PRETTY_FUNCTION__._ZNK5boost10shared_ptrIN8QuantLib14FdmExtOUJumpOpEEptEv, ptr noundef @.str.17, i64 noundef 784)
  br label %cond.end

cond.end:                                         ; preds = %cond.false, %cond.true
  %px3 = getelementptr inbounds nuw %"class.boost::shared_ptr.43", ptr %this1, i32 0, i32 0
  %1 = load ptr, ptr %px3, align 8, !tbaa !29
  ret ptr %1
}

; Function Attrs: mustprogress uwtable
define void @_ZNK8QuantLib15FdmKlugeExtOUOp14preconditionerERKNS_5ArrayEd(ptr dead_on_unwind noalias writable sret(%"class.QuantLib::Array") align 8 %agg.result, ptr noundef nonnull align 8 dereferenceable(304) %this, ptr noundef nonnull align 8 dereferenceable(16) %r, double noundef %dt) unnamed_addr #2 align 2 {
entry:
  %result.ptr = alloca ptr, align 8
  %this.addr = alloca ptr, align 8
  %r.addr = alloca ptr, align 8
  %dt.addr = alloca double, align 8
  store ptr %agg.result, ptr %result.ptr, align 8
  store ptr %this, ptr %this.addr, align 8, !tbaa !3
  store ptr %r, ptr %r.addr, align 8, !tbaa !3
  store double %dt, ptr %dt.addr, align 8, !tbaa !33
  %this1 = load ptr, ptr %this.addr, align 8
  %klugeOp_ = getelementptr inbounds nuw %"class.QuantLib::FdmKlugeExtOUOp", ptr %this1, i32 0, i32 6
  %call = call noundef ptr @_ZNK5boost10shared_ptrIN8QuantLib14FdmExtOUJumpOpEEptEv(ptr noundef nonnull align 8 dereferenceable(16) %klugeOp_)
  %0 = load ptr, ptr %r.addr, align 8, !tbaa !3
  %1 = load double, ptr %dt.addr, align 8, !tbaa !33
  %vtable = load ptr, ptr %call, align 8, !tbaa !12
  %vfn = getelementptr inbounds ptr, ptr %vtable, i64 8
  %2 = load ptr, ptr %vfn, align 8
  call void %2(ptr dead_on_unwind writable sret(%"class.QuantLib::Array") align 8 %agg.result, ptr noundef nonnull align 8 dereferenceable(336) %call, i64 noundef 0, ptr noundef nonnull align 8 dereferenceable(16) %0, double noundef %1)
  ret void
}