; Function Attrs: mustprogress uwtable
define void @_ZNK8QuantLib15FdmKlugeExtOUOp14preconditionerERKNS_5ArrayEd(ptr dead_on_unwind noalias writable sret(%"class.QuantLib::Array") align 8 %agg.result, ptr nocapture noundef nonnull readonly align 8 dereferenceable(304) %this, ptr noundef nonnull align 8 dereferenceable(16) %r, double noundef %dt) unnamed_addr #6 align 2 {
entry:
  %klugeOp_ = getelementptr inbounds nuw i8, ptr %this, i64 96
  %0 = load ptr, ptr %klugeOp_, align 8, !tbaa !58
  %cmp.not.i = icmp eq ptr %0, null
  br i1 %cmp.not.i, label %cond.false.i, label %_ZNK5boost10shared_ptrIN8QuantLib14FdmExtOUJumpOpEEptEv.exit, !prof !47

cond.false.i:                                     ; preds = %entry
  tail call void @_ZN5boost16assertion_failedEPKcS1_S1_l(ptr noundef nonnull @.str.16, ptr noundef nonnull @__PRETTY_FUNCTION__._ZNK5boost10shared_ptrIN8QuantLib14FdmExtOUJumpOpEEptEv, ptr noundef nonnull @.str.17, i64 noundef 784)
  %.pre.i = load ptr, ptr %klugeOp_, align 8, !tbaa !58
  br label %_ZNK5boost10shared_ptrIN8QuantLib14FdmExtOUJumpOpEEptEv.exit

_ZNK5boost10shared_ptrIN8QuantLib14FdmExtOUJumpOpEEptEv.exit: ; preds = %entry, %cond.false.i
  %1 = phi ptr [ %0, %entry ], [ %.pre.i, %cond.false.i ]
  %vtable = load ptr, ptr %1, align 8, !tbaa !28
  %vfn = getelementptr inbounds i8, ptr %vtable, i64 64
  %2 = load ptr, ptr %vfn, align 8
  tail call void %2(ptr dead_on_unwind writable sret(%"class.QuantLib::Array") align 8 %agg.result, ptr noundef nonnull align 8 dereferenceable(336) %1, i64 noundef 0, ptr noundef nonnull align 8 dereferenceable(16) %r, double noundef %dt)
  ret void
}